target datalayout = "e-m:e-p270:32:32-p271:32:32-p272:64:64-i64:64-i128:128-f80:128-n8:16:32:64-S128"
target triple = "x86_64-pc-linux-gnu"

%"class.cv::Mat" = type { i32, i32, i32, i32, ptr, ptr, ptr, ptr, ptr, ptr, %"struct.cv::MatSize", %"struct.cv::MatStep" }
%"struct.cv::MatSize" = type { ptr }
%"struct.cv::MatStep" = type { ptr, [2 x i64] }
%"class.cv::Point_.14" = type { i32, i32 }

; Function Attrs: inlinehint mustprogress nounwind uwtable
define linkonce_odr noundef float @_ZSt3absf(float noundef %0) #7 comdat {
  %2 = alloca float, align 4
  store float %0, ptr %2, align 4, !tbaa !7
  %3 = load float, ptr %2, align 4, !tbaa !7
  %4 = call float @llvm.fabs.f32(float %3)
  ret float %4
}

; Function Attrs: inlinehint mustprogress nounwind uwtable
define linkonce_odr hidden noundef nonnull align 1 dereferenceable(1) ptr @_ZNK2cv3Mat2atIhEERKT_ii(ptr noundef nonnull align 8 dereferenceable(96) %0, i32 noundef %1, i32 noundef %2) #7 comdat align 2 {
  %4 = alloca ptr, align 8
  %5 = alloca i32, align 4
  %6 = alloca i32, align 4
  store ptr %0, ptr %4, align 8, !tbaa !66
  store i32 %1, ptr %5, align 4, !tbaa !3
  store i32 %2, ptr %6, align 4, !tbaa !3
  %7 = load ptr, ptr %4, align 8
  %8 = getelementptr inbounds nuw %"class.cv::Mat", ptr %7, i32 0, i32 4
  %9 = load ptr, ptr %8, align 8, !tbaa !103
  %10 = getelementptr inbounds nuw %"class.cv::Mat", ptr %7, i32 0, i32 11
  %11 = getelementptr inbounds nuw %"struct.cv::MatStep", ptr %10, i32 0, i32 0
  %12 = load ptr, ptr %11, align 8, !tbaa !125
  %13 = getelementptr inbounds i64, ptr %12, i64 0
  %14 = load i64, ptr %13, align 8, !tbaa !53
  %15 = load i32, ptr %5, align 4, !tbaa !3
  %16 = sext i32 %15 to i64
  %17 = mul i64 %14, %16
  %18 = getelementptr inbounds nuw i8, ptr %9, i64 %17
  %19 = load i32, ptr %6, align 4, !tbaa !3
  %20 = sext i32 %19 to i64
  %21 = getelementptr inbounds i8, ptr %18, i64 %20
  ret ptr %21
}

; Function Attrs: inlinehint mustprogress nounwind uwtable
define linkonce_odr hidden void @_ZN2cv6Point_IiEC2Ev(ptr noundef nonnull align 4 dereferenceable(8) %0) unnamed_addr #7 comdat align 2 {
  %2 = alloca ptr, align 8
  store ptr %0, ptr %2, align 8, !tbaa !129
  %3 = load ptr, ptr %2, align 8
  %4 = getelementptr inbounds nuw %"class.cv::Point_.14", ptr %3, i32 0, i32 0
  store i32 0, ptr %4, align 4, !tbaa !86
  %5 = getelementptr inbounds nuw %"class.cv::Point_.14", ptr %3, i32 0, i32 1
  store i32 0, ptr %5, align 4, !tbaa !84
  ret void
}

; Function Attrs: mustprogress uwtable
define hidden noundef zeroext i1 @_ZN2cv8ximgproc20FastLineDetectorImpl13getPointChainERKNS_3MatENS_6Point_IiEERS6_Rfi(ptr noundef nonnull align 8 dereferenceable(45) %0, ptr noundef nonnull align 8 dereferenceable(96) %1, i64 %2, ptr noundef nonnull align 4 dereferenceable(8) %3, ptr noundef nonnull align 4 dereferenceable(4) %4, i32 noundef %5) #4 align 2 {
  %7 = alloca i1, align 1
  %8 = alloca %"class.cv::Point_.14", align 4
  %9 = alloca ptr, align 8
  %10 = alloca ptr, align 8
  %11 = alloca ptr, align 8
  %12 = alloca ptr, align 8
  %13 = alloca i32, align 4
  %14 = alloca i32, align 4
  %15 = alloca i32, align 4
  %16 = alloca [8 x [2 x i32]], align 16
  %17 = alloca float, align 4
  %18 = alloca %"class.cv::Point_.14", align 4
  %19 = alloca i32, align 4
  %20 = alloca i32, align 4
  %21 = alloca i32, align 4
  %22 = alloca float, align 4
  %23 = alloca float, align 4
  store i64 %2, ptr %8, align 4
  store ptr %0, ptr %9, align 8, !tbaa !26
  store ptr %1, ptr %10, align 8, !tbaa !66
  store ptr %3, ptr %11, align 8, !tbaa !129
  store ptr %4, ptr %12, align 8, !tbaa !16
  store i32 %5, ptr %13, align 4, !tbaa !3
  call void @llvm.lifetime.start.p0(i64 4, ptr %14) #3
  call void @llvm.lifetime.start.p0(i64 4, ptr %15) #3
  call void @llvm.lifetime.start.p0(i64 64, ptr %16) #3
  call void @llvm.memcpy.p0.p0.i64(ptr align 16 %16, ptr align 16 @__const._ZN2cv8ximgproc20FastLineDetectorImpl13getPointChainERKNS_3MatENS_6Point_IiEERS6_Rfi.indices, i64 64, i1 false)
  call void @llvm.lifetime.start.p0(i64 4, ptr %17) #3
  store float 7.000000e+00, ptr %17, align 4, !tbaa !7
  call void @llvm.lifetime.start.p0(i64 8, ptr %18) #3
  call void @_ZN2cv6Point_IiEC2Ev(ptr noundef nonnull align 4 dereferenceable(8) %18)
  call void @llvm.lifetime.start.p0(i64 4, ptr %19) #3
  store i32 0, ptr %19, align 4, !tbaa !3
  call void @llvm.lifetime.start.p0(i64 4, ptr %20) #3
  store i32 0, ptr %20, align 4, !tbaa !3
  br label %24

24:                                               ; preds = %140, %6
  %25 = load i32, ptr %20, align 4, !tbaa !3
  %26 = icmp slt i32 %25, 8
  br i1 %26, label %28, label %27

27:                                               ; preds = %24
  store i32 2, ptr %21, align 4
  br label %143

28:                                               ; preds = %24
  %29 = getelementptr inbounds nuw %"class.cv::Point_.14", ptr %8, i32 0, i32 0
  %30 = load i32, ptr %29, align 4, !tbaa !86
  %31 = load i32, ptr %20, align 4, !tbaa !3
  %32 = sext i32 %31 to i64
  %33 = getelementptr inbounds [8 x [2 x i32]], ptr %16, i64 0, i64 %32
  %34 = getelementptr inbounds [2 x i32], ptr %33, i64 0, i64 1
  %35 = load i32, ptr %34, align 4, !tbaa !3
  %36 = add nsw i32 %30, %35
  store i32 %36, ptr %15, align 4, !tbaa !3
  %37 = getelementptr inbounds nuw %"class.cv::Point_.14", ptr %8, i32 0, i32 1
  %38 = load i32, ptr %37, align 4, !tbaa !84
  %39 = load i32, ptr %20, align 4, !tbaa !3
  %40 = sext i32 %39 to i64
  %41 = getelementptr inbounds [8 x [2 x i32]], ptr %16, i64 0, i64 %40
  %42 = getelementptr inbounds [2 x i32], ptr %41, i64 0, i64 0
  %43 = load i32, ptr %42, align 8, !tbaa !3
  %44 = add nsw i32 %38, %43
  store i32 %44, ptr %14, align 4, !tbaa !3
  %45 = load i32, ptr %14, align 4, !tbaa !3
  %46 = icmp slt i32 %45, 0
  br i1 %46, label %62, label %47

47:                                               ; preds = %28
  %48 = load i32, ptr %14, align 4, !tbaa !3
  %49 = load ptr, ptr %10, align 8, !tbaa !66
  %50 = getelementptr inbounds nuw %"class.cv::Mat", ptr %49, i32 0, i32 2
  %51 = load i32, ptr %50, align 8, !tbaa !79
  %52 = icmp eq i32 %48, %51
  br i1 %52, label %62, label %53

53:                                               ; preds = %47
  %54 = load i32, ptr %15, align 4, !tbaa !3
  %55 = icmp slt i32 %54, 0
  br i1 %55, label %62, label %56

56:                                               ; preds = %53
  %57 = load i32, ptr %15, align 4, !tbaa !3
  %58 = load ptr, ptr %10, align 8, !tbaa !66
  %59 = getelementptr inbounds nuw %"class.cv::Mat", ptr %58, i32 0, i32 3
  %60 = load i32, ptr %59, align 4, !tbaa !81
  %61 = icmp eq i32 %57, %60
  br i1 %61, label %62, label %63

62:                                               ; preds = %56, %53, %47, %28
  br label %140

63:                                               ; preds = %56
  %64 = load ptr, ptr %10, align 8, !tbaa !66
  %65 = load i32, ptr %14, align 4, !tbaa !3
  %66 = load i32, ptr %15, align 4, !tbaa !3
  %67 = call noundef nonnull align 1 dereferenceable(1) ptr @_ZNK2cv3Mat2atIhEERKT_ii(ptr noundef nonnull align 8 dereferenceable(96) %64, i32 noundef %65, i32 noundef %66)
  %68 = load i8, ptr %67, align 1, !tbaa !83
  %69 = zext i8 %68 to i32
  %70 = icmp eq i32 %69, 0
  br i1 %70, label %71, label %72

71:                                               ; preds = %63
  br label %140

72:                                               ; preds = %63
  %73 = load i32, ptr %13, align 4, !tbaa !3
  %74 = icmp eq i32 %73, 0
  br i1 %74, label %75, label %94

75:                                               ; preds = %72
  %76 = load i32, ptr %15, align 4, !tbaa !3
  %77 = load ptr, ptr %11, align 8, !tbaa !129
  %78 = getelementptr inbounds nuw %"class.cv::Point_.14", ptr %77, i32 0, i32 0
  store i32 %76, ptr %78, align 4, !tbaa !86
  %79 = load i32, ptr %14, align 4, !tbaa !3
  %80 = load ptr, ptr %11, align 8, !tbaa !129
  %81 = getelementptr inbounds nuw %"class.cv::Point_.14", ptr %80, i32 0, i32 1
  store i32 %79, ptr %81, align 4, !tbaa !84
  %82 = load i32, ptr %20, align 4, !tbaa !3
  %83 = icmp sgt i32 %82, 4
  br i1 %83, label %84, label %88

84:                                               ; preds = %75
  %85 = load i32, ptr %20, align 4, !tbaa !3
  %86 = sub nsw i32 %85, 8
  %87 = sitofp i32 %86 to float
  br label %91

88:                                               ; preds = %75
  %89 = load i32, ptr %20, align 4, !tbaa !3
  %90 = sitofp i32 %89 to float
  br label %91

91:                                               ; preds = %88, %84
  %92 = phi float [ %87, %84 ], [ %90, %88 ]
  %93 = load ptr, ptr %12, align 8, !tbaa !16
  store float %92, ptr %93, align 4, !tbaa !7
  store i1 true, ptr %7, align 1
  store i32 1, ptr %21, align 4
  br label %143

94:                                               ; preds = %72
  call void @llvm.lifetime.start.p0(i64 4, ptr %22) #3
  %95 = load i32, ptr %20, align 4, !tbaa !3
  %96 = icmp sgt i32 %95, 4
  br i1 %96, label %97, label %101

97:                                               ; preds = %94
  %98 = load i32, ptr %20, align 4, !tbaa !3
  %99 = sub nsw i32 %98, 8
  %100 = sitofp i32 %99 to float
  br label %104

101:                                              ; preds = %94
  %102 = load i32, ptr %20, align 4, !tbaa !3
  %103 = sitofp i32 %102 to float
  br label %104

104:                                              ; preds = %101, %97
  %105 = phi float [ %100, %97 ], [ %103, %101 ]
  store float %105, ptr %22, align 4, !tbaa !7
  call void @llvm.lifetime.start.p0(i64 4, ptr %23) #3
  %106 = load float, ptr %22, align 4, !tbaa !7
  %107 = load ptr, ptr %12, align 8, !tbaa !16
  %108 = load float, ptr %107, align 4, !tbaa !7
  %109 = fsub float %106, %108
  %110 = call noundef float @_ZSt3absf(float noundef %109)
  store float %110, ptr %23, align 4, !tbaa !7
  %111 = load float, ptr %23, align 4, !tbaa !7
  %112 = fcmp ogt float %111, 4.000000e+00
  br i1 %112, label %113, label %116

113:                                              ; preds = %104
  %114 = load float, ptr %23, align 4, !tbaa !7
  %115 = fsub float 8.000000e+00, %114
  br label %118

116:                                              ; preds = %104
  %117 = load float, ptr %23, align 4, !tbaa !7
  br label %118

118:                                              ; preds = %116, %113
  %119 = phi float [ %115, %113 ], [ %117, %116 ]
  store float %119, ptr %23, align 4, !tbaa !7
  %120 = load float, ptr %23, align 4, !tbaa !7
  %121 = load float, ptr %17, align 4, !tbaa !7
  %122 = fcmp ole float %120, %121
  br i1 %122, label %123, label %138

123:                                              ; preds = %118
  %124 = load float, ptr %23, align 4, !tbaa !7
  store float %124, ptr %17, align 4, !tbaa !7
  %125 = load i32, ptr %15, align 4, !tbaa !3
  %126 = getelementptr inbounds nuw %"class.cv::Point_.14", ptr %18, i32 0, i32 0
  store i32 %125, ptr %126, align 4, !tbaa !86
  %127 = load i32, ptr %14, align 4, !tbaa !3
  %128 = getelementptr inbounds nuw %"class.cv::Point_.14", ptr %18, i32 0, i32 1
  store i32 %127, ptr %128, align 4, !tbaa !84
  %129 = load i32, ptr %20, align 4, !tbaa !3
  %130 = icmp sgt i32 %129, 4
  br i1 %130, label %131, label %134

131:                                              ; preds = %123
  %132 = load i32, ptr %20, align 4, !tbaa !3
  %133 = sub nsw i32 %132, 8
  br label %136

134:                                              ; preds = %123
  %135 = load i32, ptr %20, align 4, !tbaa !3
  br label %136

136:                                              ; preds = %134, %131
  %137 = phi i32 [ %133, %131 ], [ %135, %134 ]
  store i32 %137, ptr %19, align 4, !tbaa !3
  br label %138

138:                                              ; preds = %136, %118
  call void @llvm.lifetime.end.p0(i64 4, ptr %23) #3
  call void @llvm.lifetime.end.p0(i64 4, ptr %22) #3
  br label %139

139:                                              ; preds = %138
  br label %140

140:                                              ; preds = %139, %71, %62
  %141 = load i32, ptr %20, align 4, !tbaa !3
  %142 = add nsw i32 %141, 1
  store i32 %142, ptr %20, align 4, !tbaa !3
  br label %24, !llvm.loop !146

143:                                              ; preds = %91, %27
  call void @llvm.lifetime.end.p0(i64 4, ptr %20) #3
  %144 = load i32, ptr %21, align 4
  switch i32 %144, label %170 [
    i32 2, label %145
  ]

145:                                              ; preds = %143
  %146 = load float, ptr %17, align 4, !tbaa !7
  %147 = fcmp olt float %146, 2.000000e+00
  br i1 %147, label %148, label %169

148:                                              ; preds = %145
  %149 = getelementptr inbounds nuw %"class.cv::Point_.14", ptr %18, i32 0, i32 0
  %150 = load i32, ptr %149, align 4, !tbaa !86
  %151 = load ptr, ptr %11, align 8, !tbaa !129
  %152 = getelementptr inbounds nuw %"class.cv::Point_.14", ptr %151, i32 0, i32 0
  store i32 %150, ptr %152, align 4, !tbaa !86
  %153 = getelementptr inbounds nuw %"class.cv::Point_.14", ptr %18, i32 0, i32 1
  %154 = load i32, ptr %153, align 4, !tbaa !84
  %155 = load ptr, ptr %11, align 8, !tbaa !129
  %156 = getelementptr inbounds nuw %"class.cv::Point_.14", ptr %155, i32 0, i32 1
  store i32 %154, ptr %156, align 4, !tbaa !84
  %157 = load ptr, ptr %12, align 8, !tbaa !16
  %158 = load float, ptr %157, align 4, !tbaa !7
  %159 = load i32, ptr %13, align 4, !tbaa !3
  %160 = sitofp i32 %159 to float
  %161 = load i32, ptr %19, align 4, !tbaa !3
  %162 = sitofp i32 %161 to float
  %163 = call float @llvm.fmuladd.f32(float %158, float %160, float %162)
  %164 = load i32, ptr %13, align 4, !tbaa !3
  %165 = add nsw i32 %164, 1
  %166 = sitofp i32 %165 to float
  %167 = fdiv float %163, %166
  %168 = load ptr, ptr %12, align 8, !tbaa !16
  store float %167, ptr %168, align 4, !tbaa !7
  store i1 true, ptr %7, align 1
  store i32 1, ptr %21, align 4
  br label %170

169:                                              ; preds = %145
  store i1 false, ptr %7, align 1
  store i32 1, ptr %21, align 4
  br label %170

170:                                              ; preds = %169, %148, %143
  call void @llvm.lifetime.end.p0(i64 4, ptr %19) #3
  call void @llvm.lifetime.end.p0(i64 8, ptr %18) #3
  call void @llvm.lifetime.end.p0(i64 4, ptr %17) #3
  call void @llvm.lifetime.end.p0(i64 64, ptr %16) #3
  call void @llvm.lifetime.end.p0(i64 4, ptr %15) #3
  call void @llvm.lifetime.end.p0(i64 4, ptr %14) #3
  %171 = load i1, ptr %7, align 1
  ret i1 %171
}