; Function Attrs: mustprogress nofree norecurse nosync nounwind memory(read, argmem: readwrite, inaccessiblemem: none) uwtable
define hidden noundef zeroext i1 @_ZN2cv8ximgproc20FastLineDetectorImpl13getPointChainERKNS_3MatENS_6Point_IiEERS6_Rfi(ptr noundef nonnull readnone align 8 captures(none) dereferenceable(45) %0, ptr noundef nonnull readonly align 8 captures(none) dereferenceable(96) %1, i64 %2, ptr noundef nonnull writeonly align 4 captures(none) dereferenceable(8) %3, ptr noundef nonnull align 4 captures(none) dereferenceable(4) %4, i32 noundef %5) local_unnamed_addr #13 align 2 {
  %.sroa.0.0.extract.trunc = trunc i64 %2 to i32
  %.sroa.2.0.extract.shift = lshr i64 %2, 32
  %.sroa.2.0.extract.trunc = trunc nuw i64 %.sroa.2.0.extract.shift to i32
  %7 = getelementptr inbounds nuw i8, ptr %1, i64 8
  %8 = load i32, ptr %7, align 8
  %9 = getelementptr inbounds nuw i8, ptr %1, i64 12
  %10 = load i32, ptr %9, align 4
  %11 = getelementptr inbounds nuw i8, ptr %1, i64 16
  %12 = load ptr, ptr %11, align 8
  %13 = getelementptr inbounds nuw i8, ptr %1, i64 72
  %14 = load ptr, ptr %13, align 8
  %15 = icmp eq i32 %5, 0
  %16 = load float, ptr %4, align 4
  br i1 %15, label %.split.us, label %.split

.split.us:                                        ; preds = %6, %37
  %indvars.iv89 = phi i64 [ %indvars.iv.next90, %37 ], [ 0, %6 ]
  %17 = getelementptr inbounds nuw [8 x [2 x i32]], ptr @__const._ZN2cv8ximgproc20FastLineDetectorImpl13getPointChainERKNS_3MatENS_6Point_IiEERS6_Rfi.indices, i64 0, i64 %indvars.iv89
  %18 = getelementptr inbounds nuw i8, ptr %17, i64 4
  %19 = load i32, ptr %18, align 4, !tbaa !110
  %20 = add nsw i32 %19, %.sroa.0.0.extract.trunc
  %21 = load i32, ptr %17, align 8, !tbaa !110
  %22 = add nsw i32 %21, %.sroa.2.0.extract.trunc
  %23 = icmp slt i32 %22, 0
  br i1 %23, label %37, label %24

24:                                               ; preds = %.split.us
  %25 = icmp eq i32 %22, %8
  %26 = icmp slt i32 %20, 0
  %or.cond.us = select i1 %25, i1 true, i1 %26
  %27 = icmp eq i32 %20, %10
  %or.cond59.us = select i1 %or.cond.us, i1 true, i1 %27
  br i1 %or.cond59.us, label %37, label %28

28:                                               ; preds = %24
  %29 = load i64, ptr %14, align 8, !tbaa !64
  %30 = zext nneg i32 %22 to i64
  %31 = mul i64 %29, %30
  %32 = getelementptr inbounds nuw i8, ptr %12, i64 %31
  %33 = zext nneg i32 %20 to i64
  %34 = getelementptr inbounds nuw i8, ptr %32, i64 %33
  %35 = load i8, ptr %34, align 1, !tbaa !98
  %36 = icmp eq i8 %35, 0
  br i1 %36, label %37, label %.split72.us

37:                                               ; preds = %28, %24, %.split.us
  %indvars.iv.next90 = add nuw nsw i64 %indvars.iv89, 1
  %exitcond92 = icmp eq i64 %indvars.iv.next90, 8
  br i1 %exitcond92, label %.critedge.thread, label %.split.us, !llvm.loop !111

.split:                                           ; preds = %6, %81
  %indvars.iv = phi i64 [ %indvars.iv.next, %81 ], [ 0, %6 ]
  %.05069 = phi i32 [ %.151, %81 ], [ 0, %6 ]
  %.05268 = phi float [ %.153, %81 ], [ 7.000000e+00, %6 ]
  %.sroa.0.067 = phi i32 [ %.sroa.0.1, %81 ], [ 0, %6 ]
  %.sroa.5.066 = phi i32 [ %.sroa.5.1, %81 ], [ 0, %6 ]
  %indvars88 = trunc i64 %indvars.iv to i32
  %38 = getelementptr inbounds nuw [8 x [2 x i32]], ptr @__const._ZN2cv8ximgproc20FastLineDetectorImpl13getPointChainERKNS_3MatENS_6Point_IiEERS6_Rfi.indices, i64 0, i64 %indvars.iv
  %39 = getelementptr inbounds nuw i8, ptr %38, i64 4
  %40 = load i32, ptr %39, align 4, !tbaa !110
  %41 = add nsw i32 %40, %.sroa.0.0.extract.trunc
  %42 = load i32, ptr %38, align 8, !tbaa !110
  %43 = add nsw i32 %42, %.sroa.2.0.extract.trunc
  %44 = icmp slt i32 %43, 0
  br i1 %44, label %81, label %45

45:                                               ; preds = %.split
  %46 = icmp eq i32 %43, %8
  %47 = icmp slt i32 %41, 0
  %or.cond = select i1 %46, i1 true, i1 %47
  %48 = icmp eq i32 %41, %10
  %or.cond59 = select i1 %or.cond, i1 true, i1 %48
  br i1 %or.cond59, label %81, label %49

49:                                               ; preds = %45
  %50 = load i64, ptr %14, align 8, !tbaa !64
  %51 = zext nneg i32 %43 to i64
  %52 = mul i64 %50, %51
  %53 = getelementptr inbounds nuw i8, ptr %12, i64 %52
  %54 = zext nneg i32 %41 to i64
  %55 = getelementptr inbounds nuw i8, ptr %53, i64 %54
  %56 = load i8, ptr %55, align 1, !tbaa !98
  %57 = icmp eq i8 %56, 0
  br i1 %57, label %81, label %58

58:                                               ; preds = %49
  %59 = icmp samesign ugt i64 %indvars.iv, 4
  %60 = trunc i64 %indvars.iv to i32
  %61 = or i32 %60, -8
  %62 = sitofp i32 %61 to float
  %63 = uitofp nneg i32 %indvars88 to float
  %64 = select i1 %59, float %62, float %63
  %65 = fsub float %64, %16
  %66 = tail call noundef float @llvm.fabs.f32(float %65)
  %67 = fcmp ogt float %66, 4.000000e+00
  %68 = fsub float 8.000000e+00, %66
  %69 = select i1 %67, float %68, float %66
  %70 = fcmp ugt float %69, %.05268
  br i1 %70, label %81, label %78

.split72.us:                                      ; preds = %28
  %71 = trunc nuw nsw i64 %indvars.iv89 to i32
  store i32 %20, ptr %3, align 4, !tbaa !138
  %72 = getelementptr inbounds nuw i8, ptr %3, i64 4
  store i32 %22, ptr %72, align 4, !tbaa !140
  %73 = icmp samesign ugt i64 %indvars.iv89, 4
  %74 = or disjoint i32 %71, -8
  %75 = sitofp i32 %74 to float
  %76 = uitofp nneg i32 %71 to float
  %77 = select i1 %73, float %75, float %76
  br label %.critedge.thread.sink.split

78:                                               ; preds = %58
  %79 = or disjoint i32 %indvars88, -8
  %80 = select i1 %59, i32 %79, i32 %indvars88
  br label %81

81:                                               ; preds = %58, %78, %49, %.split, %45
  %.sroa.5.1 = phi i32 [ %.sroa.5.066, %.split ], [ %.sroa.5.066, %45 ], [ %.sroa.5.066, %49 ], [ %.sroa.5.066, %58 ], [ %43, %78 ]
  %.sroa.0.1 = phi i32 [ %.sroa.0.067, %.split ], [ %.sroa.0.067, %45 ], [ %.sroa.0.067, %49 ], [ %.sroa.0.067, %58 ], [ %41, %78 ]
  %.153 = phi float [ %.05268, %.split ], [ %.05268, %45 ], [ %.05268, %49 ], [ %.05268, %58 ], [ %69, %78 ]
  %.151 = phi i32 [ %.05069, %.split ], [ %.05069, %45 ], [ %.05069, %49 ], [ %.05069, %58 ], [ %80, %78 ]
  %indvars.iv.next = add nuw nsw i64 %indvars.iv, 1
  %exitcond = icmp eq i64 %indvars.iv.next, 8
  br i1 %exitcond, label %.critedge, label %.split, !llvm.loop !111

.critedge:                                        ; preds = %81
  %82 = fcmp olt float %.153, 2.000000e+00
  br i1 %82, label %83, label %.critedge.thread

83:                                               ; preds = %.critedge
  %84 = sitofp i32 %.151 to float
  store i32 %.sroa.0.1, ptr %3, align 4, !tbaa !138
  %85 = getelementptr inbounds nuw i8, ptr %3, i64 4
  store i32 %.sroa.5.1, ptr %85, align 4, !tbaa !140
  %86 = sitofp i32 %5 to float
  %87 = tail call float @llvm.fmuladd.f32(float %16, float %86, float %84)
  %88 = add nsw i32 %5, 1
  %89 = sitofp i32 %88 to float
  %90 = fdiv float %87, %89
  br label %.critedge.thread.sink.split

.critedge.thread.sink.split:                      ; preds = %83, %.split72.us
  %.sink = phi float [ %77, %.split72.us ], [ %90, %83 ]
  store float %.sink, ptr %4, align 4, !tbaa !69
  br label %.critedge.thread

.critedge.thread:                                 ; preds = %37, %.critedge.thread.sink.split, %.critedge
  %.1 = phi i1 [ false, %.critedge ], [ true, %.critedge.thread.sink.split ], [ false, %37 ]
  ret i1 %.1
}